; Function Attrs: nounwind uwtable
define internal i32 @_signal_module_traverse(ptr noundef readonly captures(none) %0, ptr noundef readonly captures(none) %1, ptr noundef %2) #2 {
  %4 = getelementptr i8, ptr %0, i64 32
  %.val = load ptr, ptr %4, align 8, !tbaa !202
  %5 = getelementptr inbounds nuw i8, ptr %.val, i64 16
  %6 = load ptr, ptr %5, align 8, !tbaa !205
  %.not = icmp eq ptr %6, null
  br i1 %.not, label %9, label %7

7:                                                ; preds = %3
  %8 = tail call i32 %1(ptr noundef nonnull %6, ptr noundef %2) #15
  %.not20 = icmp eq i32 %8, 0
  br i1 %.not20, label %9, label %15

9:                                                ; preds = %3, %7
  %10 = getelementptr inbounds nuw i8, ptr %.val, i64 24
  %11 = load ptr, ptr %10, align 8, !tbaa !207
  %.not21 = icmp eq ptr %11, null
  br i1 %.not21, label %14, label %12

12:                                               ; preds = %9
  %13 = tail call i32 %1(ptr noundef nonnull %11, ptr noundef %2) #15
  %.not22 = icmp eq i32 %13, 0
  br i1 %.not22, label %14, label %15

14:                                               ; preds = %12, %9
  br label %15

15:                                               ; preds = %7, %12, %14
  %.1 = phi i32 [ 0, %14 ], [ %13, %12 ], [ %8, %7 ]
  ret i32 %.1
}